Archive member included to satisfy reference by file (symbol)

d:/mounriver/mounriver_studio/toolchain/risc-v embedded gcc/bin/../lib/gcc/riscv-none-embed/8.2.0/rv32ecxw/ilp32e\libgcc.a(_udivdi3.o)
                              ./User/main.o (__udivdi3)
d:/mounriver/mounriver_studio/toolchain/risc-v embedded gcc/bin/../lib/gcc/riscv-none-embed/8.2.0/rv32ecxw/ilp32e\libgcc.a(muldf3.o)
                              ./User/main.o (__muldf3)
d:/mounriver/mounriver_studio/toolchain/risc-v embedded gcc/bin/../lib/gcc/riscv-none-embed/8.2.0/rv32ecxw/ilp32e\libgcc.a(fixdfsi.o)
                              ./User/main.o (__fixdfsi)
d:/mounriver/mounriver_studio/toolchain/risc-v embedded gcc/bin/../lib/gcc/riscv-none-embed/8.2.0/rv32ecxw/ilp32e\libgcc.a(floatsidf.o)
                              ./User/main.o (__floatsidf)
d:/mounriver/mounriver_studio/toolchain/risc-v embedded gcc/bin/../lib/gcc/riscv-none-embed/8.2.0/rv32ecxw/ilp32e\libgcc.a(save-restore.o)
                              ./User/ch32v003fun/ch32v003fun.o (__riscv_save_2)
d:/mounriver/mounriver_studio/toolchain/risc-v embedded gcc/bin/../lib/gcc/riscv-none-embed/8.2.0/rv32ecxw/ilp32e\libgcc.a(muldi3.o)
                              ./User/main.o (__mulsi3)
d:/mounriver/mounriver_studio/toolchain/risc-v embedded gcc/bin/../lib/gcc/riscv-none-embed/8.2.0/rv32ecxw/ilp32e\libgcc.a(div.o)
                              ./User/main.o (__divsi3)
d:/mounriver/mounriver_studio/toolchain/risc-v embedded gcc/bin/../lib/gcc/riscv-none-embed/8.2.0/rv32ecxw/ilp32e\libgcc.a(_clz.o)
                              d:/mounriver/mounriver_studio/toolchain/risc-v embedded gcc/bin/../lib/gcc/riscv-none-embed/8.2.0/rv32ecxw/ilp32e\libgcc.a(_udivdi3.o) (__clz_tab)
d:/mounriver/mounriver_studio/toolchain/risc-v embedded gcc/bin/../lib/gcc/riscv-none-embed/8.2.0/rv32ecxw/ilp32e\libgcc.a(_clzsi2.o)
                              d:/mounriver/mounriver_studio/toolchain/risc-v embedded gcc/bin/../lib/gcc/riscv-none-embed/8.2.0/rv32ecxw/ilp32e\libgcc.a(muldf3.o) (__clzsi2)

Discarded input sections

 .text          0x0000000000000000        0x0 ./User/ch32v003fun/ch32v003fun.o
 .data          0x0000000000000000        0x0 ./User/ch32v003fun/ch32v003fun.o
 .bss           0x0000000000000000        0x0 ./User/ch32v003fun/ch32v003fun.o
 .text.strcpy   0x0000000000000000       0x10 ./User/ch32v003fun/ch32v003fun.o
 .text.strncpy  0x0000000000000000       0x16 ./User/ch32v003fun/ch32v003fun.o
 .text.strcmp   0x0000000000000000       0x22 ./User/ch32v003fun/ch32v003fun.o
 .text.strncmp  0x0000000000000000       0x2a ./User/ch32v003fun/ch32v003fun.o
 .text.strchr   0x0000000000000000       0x36 ./User/ch32v003fun/ch32v003fun.o
 .text.__memrchr
                0x0000000000000000       0x20 ./User/ch32v003fun/ch32v003fun.o
 .text.strrchr  0x0000000000000000       0x30 ./User/ch32v003fun/ch32v003fun.o
 .text.memcmp   0x0000000000000000       0x24 ./User/ch32v003fun/ch32v003fun.o
 .text.memmove  0x0000000000000000       0x68 ./User/ch32v003fun/ch32v003fun.o
 .text.memchr   0x0000000000000000       0x1a ./User/ch32v003fun/ch32v003fun.o
 .text.strnlen  0x0000000000000000       0x28 ./User/ch32v003fun/ch32v003fun.o
 .text.twoway_strstr
                0x0000000000000000      0x21c ./User/ch32v003fun/ch32v003fun.o
 .text.strstr   0x0000000000000000      0x130 ./User/ch32v003fun/ch32v003fun.o
 .text.vprintf  0x0000000000000000       0x26 ./User/ch32v003fun/ch32v003fun.o
 .text.mini_vsnprintf
                0x0000000000000000       0x40 ./User/ch32v003fun/ch32v003fun.o
 .text.snprintf
                0x0000000000000000       0x1c ./User/ch32v003fun/ch32v003fun.o
 .text.mini_snprintf
                0x0000000000000000       0x1c ./User/ch32v003fun/ch32v003fun.o
 .text.mini_pprintf
                0x0000000000000000       0x1c ./User/ch32v003fun/ch32v003fun.o
 .bss.errno     0x0000000000000000        0x4 ./User/ch32v003fun/ch32v003fun.o
 .data.ADCPrescTable
                0x0000000000000000       0x14 ./User/ch32v003fun/ch32v003fun.o
 .data.APBAHBPrescTable
                0x0000000000000000       0x10 ./User/ch32v003fun/ch32v003fun.o
 .text          0x0000000000000000        0x0 ./User/ch32v003fun/i2c_tx.o
 .data          0x0000000000000000        0x0 ./User/ch32v003fun/i2c_tx.o
 .bss           0x0000000000000000        0x0 ./User/ch32v003fun/i2c_tx.o
 .text.I2C_init
                0x0000000000000000       0x48 ./User/ch32v003fun/i2c_tx.o
 .text.I2C_start
                0x0000000000000000       0x4a ./User/ch32v003fun/i2c_tx.o
 .text.I2C_write
                0x0000000000000000       0x18 ./User/ch32v003fun/i2c_tx.o
 .text.I2C_stop
                0x0000000000000000       0x1a ./User/ch32v003fun/i2c_tx.o
 .data.ADCPrescTable
                0x0000000000000000       0x14 ./User/ch32v003fun/i2c_tx.o
 .data.APBAHBPrescTable
                0x0000000000000000       0x10 ./User/ch32v003fun/i2c_tx.o
 .debug_info    0x0000000000000000      0x3af ./User/ch32v003fun/i2c_tx.o
 .debug_abbrev  0x0000000000000000       0xf1 ./User/ch32v003fun/i2c_tx.o
 .debug_loc     0x0000000000000000       0x42 ./User/ch32v003fun/i2c_tx.o
 .debug_aranges
                0x0000000000000000       0x38 ./User/ch32v003fun/i2c_tx.o
 .debug_ranges  0x0000000000000000       0x28 ./User/ch32v003fun/i2c_tx.o
 .debug_line    0x0000000000000000      0x3e4 ./User/ch32v003fun/i2c_tx.o
 .debug_str     0x0000000000000000      0x340 ./User/ch32v003fun/i2c_tx.o
 .comment       0x0000000000000000       0x34 ./User/ch32v003fun/i2c_tx.o
 .debug_frame   0x0000000000000000       0x50 ./User/ch32v003fun/i2c_tx.o
 .text          0x0000000000000000        0x0 ./User/ch32v003fun/oled_min.o
 .data          0x0000000000000000        0x0 ./User/ch32v003fun/oled_min.o
 .bss           0x0000000000000000        0x0 ./User/ch32v003fun/oled_min.o
 .text.OLED_init
                0x0000000000000000       0x56 ./User/ch32v003fun/oled_min.o
 .text.OLED_data_start
                0x0000000000000000       0x28 ./User/ch32v003fun/oled_min.o
 .text.OLED_command_start
                0x0000000000000000       0x26 ./User/ch32v003fun/oled_min.o
 .text.OLED_send_command
                0x0000000000000000       0x3a ./User/ch32v003fun/oled_min.o
 .text.OLED_setpos
                0x0000000000000000       0x60 ./User/ch32v003fun/oled_min.o
 .text.OLED_fill
                0x0000000000000000       0x54 ./User/ch32v003fun/oled_min.o
 .text.OLED_draw_bmp
                0x0000000000000000       0x86 ./User/ch32v003fun/oled_min.o
 .text.OLED_setline
                0x0000000000000000       0x54 ./User/ch32v003fun/oled_min.o
 .text.OLED_clearline
                0x0000000000000000       0x4e ./User/ch32v003fun/oled_min.o
 .text.OLED_clear
                0x0000000000000000       0x4c ./User/ch32v003fun/oled_min.o
 .text.OLED_scrollDisplay
                0x0000000000000000       0x64 ./User/ch32v003fun/oled_min.o
 .text.OLED_plotChar
                0x0000000000000000       0x84 ./User/ch32v003fun/oled_min.o
 .text.OLED_write
                0x0000000000000000       0xa0 ./User/ch32v003fun/oled_min.o
 .text.OLED_print
                0x0000000000000000       0x24 ./User/ch32v003fun/oled_min.o
 .text.OLED_println
                0x0000000000000000       0x22 ./User/ch32v003fun/oled_min.o
 .text.OLED_printD
                0x0000000000000000       0x6e ./User/ch32v003fun/oled_min.o
 .text.OLED_printN
                0x0000000000000000       0x2c ./User/ch32v003fun/oled_min.o
 .text.OLED_printB
                0x0000000000000000       0x28 ./User/ch32v003fun/oled_min.o
 .text.OLED_printW
                0x0000000000000000       0x28 ./User/ch32v003fun/oled_min.o
 .text.OLED_printL
                0x0000000000000000       0x2a ./User/ch32v003fun/oled_min.o
 .bss.column    0x0000000000000000        0x1 ./User/ch32v003fun/oled_min.o
 .bss.line      0x0000000000000000        0x1 ./User/ch32v003fun/oled_min.o
 .bss.scroll    0x0000000000000000        0x1 ./User/ch32v003fun/oled_min.o
 .data.ADCPrescTable
                0x0000000000000000       0x14 ./User/ch32v003fun/oled_min.o
 .data.APBAHBPrescTable
                0x0000000000000000       0x10 ./User/ch32v003fun/oled_min.o
 .rodata.DIVIDER
                0x0000000000000000       0x28 ./User/ch32v003fun/oled_min.o
 .rodata.OLED_FONT
                0x0000000000000000      0x1e0 ./User/ch32v003fun/oled_min.o
 .rodata.OLED_INIT_CMD
                0x0000000000000000       0x11 ./User/ch32v003fun/oled_min.o
 .debug_info    0x0000000000000000      0xa51 ./User/ch32v003fun/oled_min.o
 .debug_abbrev  0x0000000000000000      0x1c1 ./User/ch32v003fun/oled_min.o
 .debug_loc     0x0000000000000000      0x4db ./User/ch32v003fun/oled_min.o
 .debug_aranges
                0x0000000000000000       0xb8 ./User/ch32v003fun/oled_min.o
 .debug_ranges  0x0000000000000000      0x108 ./User/ch32v003fun/oled_min.o
 .debug_line    0x0000000000000000      0xaf4 ./User/ch32v003fun/oled_min.o
 .debug_str     0x0000000000000000      0x39c ./User/ch32v003fun/oled_min.o
 .comment       0x0000000000000000       0x34 ./User/ch32v003fun/oled_min.o
 .debug_frame   0x0000000000000000      0x28c ./User/ch32v003fun/oled_min.o
 .text          0x0000000000000000        0x0 ./User/main.o
 .data          0x0000000000000000        0x0 ./User/main.o
 .bss           0x0000000000000000        0x0 ./User/main.o
 .text.i2c_ping
                0x0000000000000000       0x9e ./User/main.o
 .text.i2c_scan
                0x0000000000000000       0xc8 ./User/main.o
 .text.color_divide
                0x0000000000000000       0x62 ./User/main.o
 .text.set_color_no_div
                0x0000000000000000       0x24 ./User/main.o
 .text.gpio_init_act
                0x0000000000000000       0x3a ./User/main.o
 .text.gpio_act_pressed
                0x0000000000000000       0x10 ./User/main.o
 .text.ADC_init
                0x0000000000000000       0x18 ./User/main.o
 .text.ADC_read
                0x0000000000000000       0x1a ./User/main.o
 .text.matrix_pressed
                0x0000000000000000       0x56 ./User/main.o
 .text.matrix_pressed_panel
                0x0000000000000000       0x5c ./User/main.o
 .text.JOY_random
                0x0000000000000000       0x26 ./User/main.o
 .text.JOY_setseed_default
                0x0000000000000000       0x10 ./User/main.o
 .text.JOY_setseed
                0x0000000000000000        0xa ./User/main.o
 .text.convertDuration
                0x0000000000000000       0x5e ./User/main.o
 .text.playMusic
                0x0000000000000000       0x60 ./User/main.o
 .text.playAllMusic
                0x0000000000000000       0x20 ./User/main.o
 .text.any_paint_exist
                0x0000000000000000       0x5c ./User/main.o
 .text.any_opcode_exist
                0x0000000000000000       0x46 ./User/main.o
 .text.blue_screen
                0x0000000000000000       0x46 ./User/main.o
 .bss.funcRun   0x0000000000000000        0x8 ./User/main.o
 .bss.numRun    0x0000000000000000        0x8 ./User/main.o
 .bss.programStored
                0x0000000000000000       0x40 ./User/main.o
 .bss.rnval     0x0000000000000000        0x2 ./User/main.o
 .data.ADCPrescTable
                0x0000000000000000       0x14 ./User/main.o
 .data.APBAHBPrescTable
                0x0000000000000000       0x10 ./User/main.o
 .data.pointground
                0x0000000000000000        0x3 ./User/main.o
 .rodata.buttonsPanel
                0x0000000000000000       0x24 ./User/main.o
 .rodata.convertDuration.cst8
                0x0000000000000000        0x8 ./User/main.o
 .rodata.i2c_scan.str1.4
                0x0000000000000000       0x2a ./User/main.o
 .rodata.melody
                0x0000000000000000       0x68 ./User/main.o
 .rodata.notes  0x0000000000000000        0x4 ./User/main.o
 .rodata.num_colors
                0x0000000000000000        0x2 ./User/main.o
 .rodata.opcodeColor
                0x0000000000000000        0x3 ./User/main.o
 .rodata.tempo  0x0000000000000000        0x4 ./User/main.o
 .rodata.timeout_flash
                0x0000000000000000        0x4 ./User/main.o
 .rodata.valueColor
                0x0000000000000000        0x3 ./User/main.o
 .rodata.wholenote
                0x0000000000000000        0x4 ./User/main.o
 .text          0x0000000000000000        0x0 ./Startup/startup_ch32v00x.o
 .data          0x0000000000000000        0x0 ./Startup/startup_ch32v00x.o
 .bss           0x0000000000000000        0x0 ./Startup/startup_ch32v00x.o
 .text.vector_handler
                0x0000000000000000        0x2 ./Startup/startup_ch32v00x.o
 .text.handle_reset
                0x0000000000000000       0x90 ./Startup/startup_ch32v00x.o
 .text          0x0000000000000000        0x0 ./Core/core_riscv.o
 .data          0x0000000000000000        0x0 ./Core/core_riscv.o
 .bss           0x0000000000000000        0x0 ./Core/core_riscv.o
 .text.__get_MSTATUS
                0x0000000000000000        0x6 ./Core/core_riscv.o
 .text.__set_MSTATUS
                0x0000000000000000        0x6 ./Core/core_riscv.o
 .text.__get_MISA
                0x0000000000000000        0x6 ./Core/core_riscv.o
 .text.__set_MISA
                0x0000000000000000        0x6 ./Core/core_riscv.o
 .text.__get_MTVEC
                0x0000000000000000        0x6 ./Core/core_riscv.o
 .text.__set_MTVEC
                0x0000000000000000        0x6 ./Core/core_riscv.o
 .text.__get_MSCRATCH
                0x0000000000000000        0x6 ./Core/core_riscv.o
 .text.__set_MSCRATCH
                0x0000000000000000        0x6 ./Core/core_riscv.o
 .text.__get_MEPC
                0x0000000000000000        0x6 ./Core/core_riscv.o
 .text.__set_MEPC
                0x0000000000000000        0x6 ./Core/core_riscv.o
 .text.__get_MCAUSE
                0x0000000000000000        0x6 ./Core/core_riscv.o
 .text.__set_MCAUSE
                0x0000000000000000        0x6 ./Core/core_riscv.o
 .text.__get_MVENDORID
                0x0000000000000000        0x6 ./Core/core_riscv.o
 .text.__get_MARCHID
                0x0000000000000000        0x6 ./Core/core_riscv.o
 .text.__get_MIMPID
                0x0000000000000000        0x6 ./Core/core_riscv.o
 .text.__get_MHARTID
                0x0000000000000000        0x6 ./Core/core_riscv.o
 .text.__get_SP
                0x0000000000000000        0x4 ./Core/core_riscv.o
 .debug_info    0x0000000000000000      0x324 ./Core/core_riscv.o
 .debug_abbrev  0x0000000000000000       0xe0 ./Core/core_riscv.o
 .debug_aranges
                0x0000000000000000       0xa0 ./Core/core_riscv.o
 .debug_ranges  0x0000000000000000       0x90 ./Core/core_riscv.o
 .debug_line    0x0000000000000000      0x3f2 ./Core/core_riscv.o
 .debug_str     0x0000000000000000      0x298 ./Core/core_riscv.o
 .comment       0x0000000000000000       0x34 ./Core/core_riscv.o
 .debug_frame   0x0000000000000000      0x120 ./Core/core_riscv.o
 .text          0x0000000000000000        0x0 d:/mounriver/mounriver_studio/toolchain/risc-v embedded gcc/bin/../lib/gcc/riscv-none-embed/8.2.0/rv32ecxw/ilp32e\libgcc.a(_udivdi3.o)
 .data          0x0000000000000000        0x0 d:/mounriver/mounriver_studio/toolchain/risc-v embedded gcc/bin/../lib/gcc/riscv-none-embed/8.2.0/rv32ecxw/ilp32e\libgcc.a(_udivdi3.o)
 .bss           0x0000000000000000        0x0 d:/mounriver/mounriver_studio/toolchain/risc-v embedded gcc/bin/../lib/gcc/riscv-none-embed/8.2.0/rv32ecxw/ilp32e\libgcc.a(_udivdi3.o)
 .eh_frame      0x0000000000000000       0x58 d:/mounriver/mounriver_studio/toolchain/risc-v embedded gcc/bin/../lib/gcc/riscv-none-embed/8.2.0/rv32ecxw/ilp32e\libgcc.a(_udivdi3.o)
 .text          0x0000000000000000        0x0 d:/mounriver/mounriver_studio/toolchain/risc-v embedded gcc/bin/../lib/gcc/riscv-none-embed/8.2.0/rv32ecxw/ilp32e\libgcc.a(muldf3.o)
 .data          0x0000000000000000        0x0 d:/mounriver/mounriver_studio/toolchain/risc-v embedded gcc/bin/../lib/gcc/riscv-none-embed/8.2.0/rv32ecxw/ilp32e\libgcc.a(muldf3.o)
 .bss           0x0000000000000000        0x0 d:/mounriver/mounriver_studio/toolchain/risc-v embedded gcc/bin/../lib/gcc/riscv-none-embed/8.2.0/rv32ecxw/ilp32e\libgcc.a(muldf3.o)
 .text.__muldf3
                0x0000000000000000      0x5d2 d:/mounriver/mounriver_studio/toolchain/risc-v embedded gcc/bin/../lib/gcc/riscv-none-embed/8.2.0/rv32ecxw/ilp32e\libgcc.a(muldf3.o)
 .rodata.__muldf3
                0x0000000000000000       0x40 d:/mounriver/mounriver_studio/toolchain/risc-v embedded gcc/bin/../lib/gcc/riscv-none-embed/8.2.0/rv32ecxw/ilp32e\libgcc.a(muldf3.o)
 .debug_frame   0x0000000000000000       0x38 d:/mounriver/mounriver_studio/toolchain/risc-v embedded gcc/bin/../lib/gcc/riscv-none-embed/8.2.0/rv32ecxw/ilp32e\libgcc.a(muldf3.o)
 .text          0x0000000000000000        0x0 d:/mounriver/mounriver_studio/toolchain/risc-v embedded gcc/bin/../lib/gcc/riscv-none-embed/8.2.0/rv32ecxw/ilp32e\libgcc.a(fixdfsi.o)
 .data          0x0000000000000000        0x0 d:/mounriver/mounriver_studio/toolchain/risc-v embedded gcc/bin/../lib/gcc/riscv-none-embed/8.2.0/rv32ecxw/ilp32e\libgcc.a(fixdfsi.o)
 .bss           0x0000000000000000        0x0 d:/mounriver/mounriver_studio/toolchain/risc-v embedded gcc/bin/../lib/gcc/riscv-none-embed/8.2.0/rv32ecxw/ilp32e\libgcc.a(fixdfsi.o)
 .text.__fixdfsi
                0x0000000000000000       0x68 d:/mounriver/mounriver_studio/toolchain/risc-v embedded gcc/bin/../lib/gcc/riscv-none-embed/8.2.0/rv32ecxw/ilp32e\libgcc.a(fixdfsi.o)
 .debug_frame   0x0000000000000000       0x20 d:/mounriver/mounriver_studio/toolchain/risc-v embedded gcc/bin/../lib/gcc/riscv-none-embed/8.2.0/rv32ecxw/ilp32e\libgcc.a(fixdfsi.o)
 .text          0x0000000000000000        0x0 d:/mounriver/mounriver_studio/toolchain/risc-v embedded gcc/bin/../lib/gcc/riscv-none-embed/8.2.0/rv32ecxw/ilp32e\libgcc.a(floatsidf.o)
 .data          0x0000000000000000        0x0 d:/mounriver/mounriver_studio/toolchain/risc-v embedded gcc/bin/../lib/gcc/riscv-none-embed/8.2.0/rv32ecxw/ilp32e\libgcc.a(floatsidf.o)
 .bss           0x0000000000000000        0x0 d:/mounriver/mounriver_studio/toolchain/risc-v embedded gcc/bin/../lib/gcc/riscv-none-embed/8.2.0/rv32ecxw/ilp32e\libgcc.a(floatsidf.o)
 .text.__floatsidf
                0x0000000000000000       0x76 d:/mounriver/mounriver_studio/toolchain/risc-v embedded gcc/bin/../lib/gcc/riscv-none-embed/8.2.0/rv32ecxw/ilp32e\libgcc.a(floatsidf.o)
 .debug_frame   0x0000000000000000       0x38 d:/mounriver/mounriver_studio/toolchain/risc-v embedded gcc/bin/../lib/gcc/riscv-none-embed/8.2.0/rv32ecxw/ilp32e\libgcc.a(floatsidf.o)
 .data          0x0000000000000000        0x0 d:/mounriver/mounriver_studio/toolchain/risc-v embedded gcc/bin/../lib/gcc/riscv-none-embed/8.2.0/rv32ecxw/ilp32e\libgcc.a(save-restore.o)
 .bss           0x0000000000000000        0x0 d:/mounriver/mounriver_studio/toolchain/risc-v embedded gcc/bin/../lib/gcc/riscv-none-embed/8.2.0/rv32ecxw/ilp32e\libgcc.a(save-restore.o)
 .eh_frame      0x0000000000000000       0x68 d:/mounriver/mounriver_studio/toolchain/risc-v embedded gcc/bin/../lib/gcc/riscv-none-embed/8.2.0/rv32ecxw/ilp32e\libgcc.a(save-restore.o)
 .data          0x0000000000000000        0x0 d:/mounriver/mounriver_studio/toolchain/risc-v embedded gcc/bin/../lib/gcc/riscv-none-embed/8.2.0/rv32ecxw/ilp32e\libgcc.a(muldi3.o)
 .bss           0x0000000000000000        0x0 d:/mounriver/mounriver_studio/toolchain/risc-v embedded gcc/bin/../lib/gcc/riscv-none-embed/8.2.0/rv32ecxw/ilp32e\libgcc.a(muldi3.o)
 .data          0x0000000000000000        0x0 d:/mounriver/mounriver_studio/toolchain/risc-v embedded gcc/bin/../lib/gcc/riscv-none-embed/8.2.0/rv32ecxw/ilp32e\libgcc.a(div.o)
 .bss           0x0000000000000000        0x0 d:/mounriver/mounriver_studio/toolchain/risc-v embedded gcc/bin/../lib/gcc/riscv-none-embed/8.2.0/rv32ecxw/ilp32e\libgcc.a(div.o)
 .text          0x0000000000000000        0x0 d:/mounriver/mounriver_studio/toolchain/risc-v embedded gcc/bin/../lib/gcc/riscv-none-embed/8.2.0/rv32ecxw/ilp32e\libgcc.a(_clz.o)
 .data          0x0000000000000000        0x0 d:/mounriver/mounriver_studio/toolchain/risc-v embedded gcc/bin/../lib/gcc/riscv-none-embed/8.2.0/rv32ecxw/ilp32e\libgcc.a(_clz.o)
 .bss           0x0000000000000000        0x0 d:/mounriver/mounriver_studio/toolchain/risc-v embedded gcc/bin/../lib/gcc/riscv-none-embed/8.2.0/rv32ecxw/ilp32e\libgcc.a(_clz.o)
 .text          0x0000000000000000        0x0 d:/mounriver/mounriver_studio/toolchain/risc-v embedded gcc/bin/../lib/gcc/riscv-none-embed/8.2.0/rv32ecxw/ilp32e\libgcc.a(_clzsi2.o)
 .data          0x0000000000000000        0x0 d:/mounriver/mounriver_studio/toolchain/risc-v embedded gcc/bin/../lib/gcc/riscv-none-embed/8.2.0/rv32ecxw/ilp32e\libgcc.a(_clzsi2.o)
 .bss           0x0000000000000000        0x0 d:/mounriver/mounriver_studio/toolchain/risc-v embedded gcc/bin/../lib/gcc/riscv-none-embed/8.2.0/rv32ecxw/ilp32e\libgcc.a(_clzsi2.o)
 .text.__clzsi2
                0x0000000000000000       0x6e d:/mounriver/mounriver_studio/toolchain/risc-v embedded gcc/bin/../lib/gcc/riscv-none-embed/8.2.0/rv32ecxw/ilp32e\libgcc.a(_clzsi2.o)
 .debug_frame   0x0000000000000000       0x20 d:/mounriver/mounriver_studio/toolchain/risc-v embedded gcc/bin/../lib/gcc/riscv-none-embed/8.2.0/rv32ecxw/ilp32e\libgcc.a(_clzsi2.o)

Memory Configuration

Name             Origin             Length             Attributes
FLASH            0x0000000000000000 0x0000000000004000 xr
RAM              0x0000000020000000 0x0000000000000800 xrw
*default*        0x0000000000000000 0xffffffffffffffff

Linker script and memory map

LOAD ./User/ch32v003fun/ch32v003fun.o
LOAD ./User/ch32v003fun/i2c_tx.o
LOAD ./User/ch32v003fun/oled_min.o
LOAD ./User/main.o
LOAD ./Startup/startup_ch32v00x.o
LOAD ./Core/core_riscv.o
LOAD d:/mounriver/mounriver_studio/toolchain/risc-v embedded gcc/bin/../lib/gcc/riscv-none-embed/8.2.0/../../../../riscv-none-embed/lib/rv32ecxw/ilp32e\libprintf.a
LOAD d:/mounriver/mounriver_studio/toolchain/risc-v embedded gcc/bin/../lib/gcc/riscv-none-embed/8.2.0/rv32ecxw/ilp32e\libgcc.a
LOAD d:/mounriver/mounriver_studio/toolchain/risc-v embedded gcc/bin/../lib/gcc/riscv-none-embed/8.2.0/../../../../riscv-none-embed/lib/rv32ecxw/ilp32e\libg_nano.a
LOAD d:/mounriver/mounriver_studio/toolchain/risc-v embedded gcc/bin/../lib/gcc/riscv-none-embed/8.2.0/../../../../riscv-none-embed/lib/rv32ecxw/ilp32e\libc_nano.a
LOAD d:/mounriver/mounriver_studio/toolchain/risc-v embedded gcc/bin/../lib/gcc/riscv-none-embed/8.2.0/rv32ecxw/ilp32e\libgcc.a
START GROUP
LOAD d:/mounriver/mounriver_studio/toolchain/risc-v embedded gcc/bin/../lib/gcc/riscv-none-embed/8.2.0/rv32ecxw/ilp32e\libgcc.a
LOAD d:/mounriver/mounriver_studio/toolchain/risc-v embedded gcc/bin/../lib/gcc/riscv-none-embed/8.2.0/../../../../riscv-none-embed/lib/rv32ecxw/ilp32e\libc_nano.a
LOAD d:/mounriver/mounriver_studio/toolchain/risc-v embedded gcc/bin/../lib/gcc/riscv-none-embed/8.2.0/../../../../riscv-none-embed/lib/rv32ecxw/ilp32e\libnosys.a
END GROUP
START GROUP
LOAD d:/mounriver/mounriver_studio/toolchain/risc-v embedded gcc/bin/../lib/gcc/riscv-none-embed/8.2.0/rv32ecxw/ilp32e\libgcc.a
LOAD d:/mounriver/mounriver_studio/toolchain/risc-v embedded gcc/bin/../lib/gcc/riscv-none-embed/8.2.0/../../../../riscv-none-embed/lib/rv32ecxw/ilp32e\libc_nano.a
LOAD d:/mounriver/mounriver_studio/toolchain/risc-v embedded gcc/bin/../lib/gcc/riscv-none-embed/8.2.0/../../../../riscv-none-embed/lib/rv32ecxw/ilp32e\libnosys.a
END GROUP
                0x0000000000000100                __stack_size = 0x100
                [!provide]                        PROVIDE (_stack_size = __stack_size)

.init           0x0000000000000000      0x140
                0x0000000000000000                _sinit = .
                0x0000000000000000                . = ALIGN (0x4)
 *(SORT_NONE(.init))
 .init          0x0000000000000000       0x9e ./User/ch32v003fun/ch32v003fun.o
                0x0000000000000000                InterruptVector
                0x0000000000000000                InterruptVectorDefault
 *fill*         0x000000000000009e        0x2 
 .init          0x00000000000000a0       0x9e ./Startup/startup_ch32v00x.o
                0x00000000000000a0                _start
                0x0000000000000140                . = ALIGN (0x4)
 *fill*         0x000000000000013e        0x2 
                0x0000000000000140                _einit = .

.text           0x0000000000000140     0x3bc8
                0x0000000000000140                . = ALIGN (0x4)
 *(.text)
 .text          0x0000000000000140       0x14 d:/mounriver/mounriver_studio/toolchain/risc-v embedded gcc/bin/../lib/gcc/riscv-none-embed/8.2.0/rv32ecxw/ilp32e\libgcc.a(save-restore.o)
                0x0000000000000140                __riscv_save_1
                0x0000000000000140                __riscv_save_2
                0x0000000000000140                __riscv_save_0
                0x000000000000014a                __riscv_restore_0
                0x000000000000014a                __riscv_restore_1
                0x000000000000014a                __riscv_restore_2
 .text          0x0000000000000154       0x16 d:/mounriver/mounriver_studio/toolchain/risc-v embedded gcc/bin/../lib/gcc/riscv-none-embed/8.2.0/rv32ecxw/ilp32e\libgcc.a(muldi3.o)
                0x0000000000000154                __mulsi3
 *fill*         0x000000000000016a        0x2 
 .text          0x000000000000016c       0x7e d:/mounriver/mounriver_studio/toolchain/risc-v embedded gcc/bin/../lib/gcc/riscv-none-embed/8.2.0/rv32ecxw/ilp32e\libgcc.a(div.o)
                0x000000000000016c                __divsi3
                0x0000000000000174                __udivsi3
                0x00000000000001a0                __umodsi3
                0x00000000000001c4                __modsi3
 *(.text.*)
 .text.mini_pad
                0x00000000000001ea       0x84 ./User/ch32v003fun/ch32v003fun.o
 .text._puts    0x000000000000026e       0x3e ./User/ch32v003fun/ch32v003fun.o
 .text.mini_itoa.part.0
                0x00000000000002ac       0xba ./User/ch32v003fun/ch32v003fun.o
 .text.handle_reset
                0x0000000000000366       0x7e ./User/ch32v003fun/ch32v003fun.o
                0x0000000000000366                handle_reset
 .text.vector_handler
                0x00000000000003e4       0x10 ./User/ch32v003fun/ch32v003fun.o
                0x00000000000003e4                TIM1_CC_IRQHandler
                0x00000000000003e4                HardFault_Handler
                0x00000000000003e4                SysTick_Handler
                0x00000000000003e4                PVD_IRQHandler
                0x00000000000003e4                USART1_IRQHandler
                0x00000000000003e4                SPI1_IRQHandler
                0x00000000000003e4                AWU_IRQHandler
                0x00000000000003e4                EXTI7_0_IRQHandler
                0x00000000000003e4                DMA1_Channel4_IRQHandler
                0x00000000000003e4                ADC1_IRQHandler
                0x00000000000003e4                DMA1_Channel7_IRQHandler
                0x00000000000003e4                I2C1_EV_IRQHandler
                0x00000000000003e4                DMA1_Channel6_IRQHandler
                0x00000000000003e4                RCC_IRQHandler
                0x00000000000003e4                TIM1_TRG_COM_IRQHandler
                0x00000000000003e4                DMA1_Channel1_IRQHandler
                0x00000000000003e4                DefaultIRQHandler
                0x00000000000003e4                FLASH_IRQHandler
                0x00000000000003e4                DMA1_Channel5_IRQHandler
                0x00000000000003e4                DMA1_Channel3_IRQHandler
                0x00000000000003e4                TIM1_UP_IRQHandler
                0x00000000000003e4                WWDG_IRQHandler
                0x00000000000003e4                TIM2_IRQHandler
                0x00000000000003e4                SW_Handler
                0x00000000000003e4                TIM1_BRK_IRQHandler
                0x00000000000003e4                DMA1_Channel2_IRQHandler
                0x00000000000003e4                I2C1_ER_IRQHandler
                0x00000000000003e6                NMI_Handler
                0x00000000000003e6                NMI_RCC_CSS_IRQHandler
 .text.strlen   0x00000000000003f4       0x12 ./User/ch32v003fun/ch32v003fun.o
                0x00000000000003f4                strlen
 .text.memset   0x0000000000000406       0x10 ./User/ch32v003fun/ch32v003fun.o
                0x0000000000000406                memset
 .text.memcpy   0x0000000000000416       0x18 ./User/ch32v003fun/ch32v003fun.o
                0x0000000000000416                memcpy
 .text.mini_vpprintf
                0x000000000000042e      0x1a4 ./User/ch32v003fun/ch32v003fun.o
                0x000000000000042e                mini_vpprintf
 .text.printf   0x00000000000005d2       0x2a ./User/ch32v003fun/ch32v003fun.o
                0x00000000000005d2                printf
 .text.SetupUART
                0x00000000000005fc       0x5a ./User/ch32v003fun/ch32v003fun.o
                0x00000000000005fc                SetupUART
 .text._write   0x0000000000000656       0x28 ./User/ch32v003fun/ch32v003fun.o
                0x0000000000000656                _write
 .text.__puts_uart
                0x000000000000067e       0x12 ./User/ch32v003fun/ch32v003fun.o
 .text.puts     0x0000000000000690       0x2a ./User/ch32v003fun/ch32v003fun.o
                0x0000000000000690                puts
 .text.putchar  0x00000000000006ba       0x1a ./User/ch32v003fun/ch32v003fun.o
                0x00000000000006ba                putchar
 .text.DelaySysTick
                0x00000000000006d4       0x16 ./User/ch32v003fun/ch32v003fun.o
                0x00000000000006d4                DelaySysTick
 .text.SystemInit
                0x00000000000006ea       0x52 ./User/ch32v003fun/ch32v003fun.o
                0x00000000000006ea                SystemInit
 .text.i2c_chk_evt
                0x000000000000073c       0x1c ./User/main.o
 .text.GPIO_ADCinit
                0x0000000000000758       0xa0 ./User/main.o
 .text.GPIO_analogRead
                0x00000000000007f8       0x3a ./User/main.o
 .text.lower_half_ADC_channel
                0x0000000000000832        0xa ./User/main.o
                0x0000000000000832                lower_half_ADC_channel
 .text.upper_half_ADC_channel
                0x000000000000083c        0xa ./User/main.o
                0x000000000000083c                upper_half_ADC_channel
 .text.i2c_setup
                0x0000000000000846       0x4c ./User/main.o
                0x0000000000000846                i2c_setup
 .text.i2c_init
                0x0000000000000892       0x60 ./User/main.o
                0x0000000000000892                i2c_init
 .text.i2c_write
                0x00000000000008f2      0x116 ./User/main.o
                0x00000000000008f2                i2c_write
 .text.i2c_read
                0x0000000000000a08      0x17e ./User/main.o
                0x0000000000000a08                i2c_read
 .text.i2c_write_pages
                0x0000000000000b86       0x68 ./User/main.o
                0x0000000000000b86                i2c_write_pages
 .text.i2c_read_pages
                0x0000000000000bee       0x68 ./User/main.o
                0x0000000000000bee                i2c_read_pages
 .text.set_color
                0x0000000000000c56       0xb4 ./User/main.o
                0x0000000000000c56                set_color
 .text.clear    0x0000000000000d0a       0x28 ./User/main.o
 .text.fill_color.constprop.15
                0x0000000000000d32       0x22 ./User/main.o
 .text.ADC_read_pad
                0x0000000000000d54        0xc ./User/main.o
                0x0000000000000d54                ADC_read_pad
 .text.ADC_read_smallboard
                0x0000000000000d60        0xa ./User/main.o
                0x0000000000000d60                ADC_read_smallboard
 .text.multiple_ADC_reads
                0x0000000000000d6a       0x54 ./User/main.o
                0x0000000000000d6a                multiple_ADC_reads
 .text.JOY_check_button
                0x0000000000000dbe      0x12e ./User/main.o
                0x0000000000000dbe                JOY_check_button
 .text.matrix_pressed_two
                0x0000000000000eec       0xb8 ./User/main.o
                0x0000000000000eec                matrix_pressed_two
 .text.JOY_sound
                0x0000000000000fa4       0xa4 ./User/main.o
                0x0000000000000fa4                JOY_sound
 .text.WS2812BSimpleSend
                0x0000000000001048       0xd6 ./User/main.o
                0x0000000000001048                WS2812BSimpleSend
 .text.opGroupExtraction
                0x000000000000111e       0x12 ./User/main.o
                0x000000000000111e                opGroupExtraction
 .text.opCodeExtraction
                0x0000000000001130       0x50 ./User/main.o
                0x0000000000001130                opCodeExtraction
 .text.varExtraction
                0x0000000000001180       0x1a ./User/main.o
                0x0000000000001180                varExtraction
 .text.logoDisplay
                0x000000000000119a       0x4c ./User/main.o
                0x000000000000119a                logoDisplay
 .text.is_storage_initialized
                0x00000000000011e6       0x44 ./User/main.o
                0x00000000000011e6                is_storage_initialized
 .text.reset_storage
                0x000000000000122a       0x6a ./User/main.o
                0x000000000000122a                reset_storage
 .text.init_storage
                0x0000000000001294       0x24 ./User/main.o
                0x0000000000001294                init_storage
 .text.print_status_storage
                0x00000000000012b8       0xb4 ./User/main.o
                0x00000000000012b8                print_status_storage
 .text.set_page_status
                0x000000000000136c       0x80 ./User/main.o
                0x000000000000136c                set_page_status
 .text.is_page_used
                0x00000000000013ec       0x52 ./User/main.o
                0x00000000000013ec                is_page_used
 .text.calculate_page_no
                0x000000000000143e       0x1a ./User/main.o
                0x000000000000143e                calculate_page_no
 .text.load_paint.part.11
                0x0000000000001458       0x92 ./User/main.o
 .text.iconShow
                0x00000000000014ea      0x166 ./User/main.o
                0x00000000000014ea                iconShow
 .text.save_paint
                0x0000000000001650       0xba ./User/main.o
                0x0000000000001650                save_paint
 .text.save_opCode
                0x000000000000170a       0xa6 ./User/main.o
                0x000000000000170a                save_opCode
 .text.load_paint
                0x00000000000017b0       0x30 ./User/main.o
                0x00000000000017b0                load_paint
 .text.rvCodeRun
                0x00000000000017e0      0x798 ./User/main.o
                0x00000000000017e0                rvCodeRun
 .text.load_opCode
                0x0000000000001f78       0xbc ./User/main.o
                0x0000000000001f78                load_opCode
 .text.led_display_paint_page_status
                0x0000000000002034       0xcc ./User/main.o
                0x0000000000002034                led_display_paint_page_status
 .text.erase_all_paint_saves
                0x0000000000002100       0x90 ./User/main.o
                0x0000000000002100                erase_all_paint_saves
 .text.flushCanvas
                0x0000000000002190       0x42 ./User/main.o
                0x0000000000002190                flushCanvas
 .text.toCodingSpace
                0x00000000000021d2       0xda ./User/main.o
                0x00000000000021d2                toCodingSpace
 .text.choose_load_page
                0x00000000000022ac      0x1de ./User/main.o
                0x00000000000022ac                choose_load_page
 .text.choose_save_page
                0x000000000000248a      0x128 ./User/main.o
                0x000000000000248a                choose_save_page
 .text.rv_code_routine
                0x00000000000025b2      0x422 ./User/main.o
                0x00000000000025b2                rv_code_routine
 .text.displayColorPalette
                0x00000000000029d4       0x5a ./User/main.o
                0x00000000000029d4                displayColorPalette
 .text.colorPaletteSelection
                0x0000000000002a2e       0x50 ./User/main.o
                0x0000000000002a2e                colorPaletteSelection
 .text.painting_routine
                0x0000000000002a7e      0x248 ./User/main.o
                0x0000000000002a7e                painting_routine
 .text.red_screen
                0x0000000000002cc6       0x34 ./User/main.o
                0x0000000000002cc6                red_screen
 .text.appRunningRoutine
                0x0000000000002cfa       0x34 ./User/main.o
                0x0000000000002cfa                appRunningRoutine
 .text.startup.main
                0x0000000000002d2e       0xd2 ./User/main.o
                0x0000000000002d2e                main
 .text.__udivdi3
                0x0000000000002e00      0x4f2 d:/mounriver/mounriver_studio/toolchain/risc-v embedded gcc/bin/../lib/gcc/riscv-none-embed/8.2.0/rv32ecxw/ilp32e\libgcc.a(_udivdi3.o)
                0x0000000000002e00                __udivdi3
 *(.rodata)
 *(.rodata*)
 .rodata.puts.str1.4
                0x00000000000032f2        0x0 ./User/ch32v003fun/ch32v003fun.o
                                          0x2 (size before relaxing)
 *fill*         0x00000000000032f2        0x2 
 .rodata.rvCodeRun
                0x00000000000032f4       0xc8 ./User/main.o
 .rodata.CSWTCH.132
                0x00000000000033bc        0x8 ./User/main.o
 .rodata.CSWTCH.133
                0x00000000000033c4        0xe ./User/main.o
 *fill*         0x00000000000033d2        0x2 
 .rodata.buttons
                0x00000000000033d4      0x100 ./User/main.o
 .rodata.choose_load_page.str1.4
                0x00000000000034d4       0x45 ./User/main.o
 *fill*         0x0000000000003519        0x3 
 .rodata.choose_save_page.str1.4
                0x000000000000351c       0x30 ./User/main.o
 .rodata.colorPaletteSelection.str1.4
                0x000000000000354c       0x20 ./User/main.o
 .rodata.color_savefile_empty
                0x000000000000356c        0x3 ./User/main.o
                0x000000000000356c                color_savefile_empty
 *fill*         0x000000000000356f        0x1 
 .rodata.color_savefile_exist
                0x0000000000003570        0x3 ./User/main.o
                0x0000000000003570                color_savefile_exist
 *fill*         0x0000000000003573        0x1 
 .rodata.colors
                0x0000000000003574       0xc0 ./User/main.o
                0x0000000000003574                colors
 .rodata.displayColorPalette.str1.4
                0x0000000000003634       0x18 ./User/main.o
 .rodata.erase_all_paint_saves.str1.4
                0x000000000000364c       0x50 ./User/main.o
 .rodata.iconShow.str1.4
                0x000000000000369c       0x28 ./User/main.o
 .rodata.init_storage.str1.4
                0x00000000000036c4       0x30 ./User/main.o
 .rodata.is_storage_initialized.str1.4
                0x00000000000036f4        0x9 ./User/main.o
 *fill*         0x00000000000036fd        0x3 
 .rodata.load_paint.part.11.str1.4
                0x0000000000003700       0x6d ./User/main.o
 *fill*         0x000000000000376d        0x3 
 .rodata.main.str1.4
                0x0000000000003770       0x1c ./User/main.o
 .rodata.matrix_pressed_two.str1.4
                0x000000000000378c       0x1f ./User/main.o
 *fill*         0x00000000000037ab        0x1 
 .rodata.painting_routine.str1.4
                0x00000000000037ac       0xd8 ./User/main.o
 .rodata.print_status_storage.str1.4
                0x0000000000003884       0x31 ./User/main.o
 *fill*         0x00000000000038b5        0x3 
 .rodata.reset_storage.str1.4
                0x00000000000038b8        0xe ./User/main.o
 *fill*         0x00000000000038c6        0x2 
 .rodata.rvCodeRun.str1.4
                0x00000000000038c8       0xfb ./User/main.o
 *fill*         0x00000000000039c3        0x1 
 .rodata.rv_code_routine.str1.4
                0x00000000000039c4      0x134 ./User/main.o
 .rodata.save_opCode.str1.4
                0x0000000000003af8       0x51 ./User/main.o
 *fill*         0x0000000000003b49        0x3 
 .rodata.save_paint.str1.4
                0x0000000000003b4c       0x68 ./User/main.o
 .rodata.set_page_status.str1.4
                0x0000000000003bb4       0x38 ./User/main.o
 .rodata.toCodingSpace.str1.4
                0x0000000000003bec       0x1c ./User/main.o
                                         0x1a (size before relaxing)
 .rodata.__clz_tab
                0x0000000000003c08      0x100 d:/mounriver/mounriver_studio/toolchain/risc-v embedded gcc/bin/../lib/gcc/riscv-none-embed/8.2.0/rv32ecxw/ilp32e\libgcc.a(_clz.o)
                0x0000000000003c08                __clz_tab
 *(.gnu.linkonce.t.*)
                0x0000000000003d08                . = ALIGN (0x4)

.rela.dyn       0x0000000000003d08        0x0
 .rela.text.handle_reset
                0x0000000000003d08        0x0 ./User/ch32v003fun/ch32v003fun.o
 .rela.init     0x0000000000003d08        0x0 ./User/ch32v003fun/ch32v003fun.o

.fini           0x0000000000003d08        0x0
 *(SORT_NONE(.fini))
                0x0000000000003d08                . = ALIGN (0x4)
                [!provide]                        PROVIDE (_etext = .)
                [!provide]                        PROVIDE (_eitcm = .)

.preinit_array  0x0000000000003d08        0x0
                [!provide]                        PROVIDE (__preinit_array_start = .)
 *(.preinit_array)
                [!provide]                        PROVIDE (__preinit_array_end = .)

.init_array     0x0000000000003d08        0x0
                [!provide]                        PROVIDE (__init_array_start = .)
 *(SORT_BY_INIT_PRIORITY(.init_array.*) SORT_BY_INIT_PRIORITY(.ctors.*))
 *(.init_array EXCLUDE_FILE(*crtend?.o *crtend.o *crtbegin?.o *crtbegin.o) .ctors)
                [!provide]                        PROVIDE (__init_array_end = .)

.fini_array     0x0000000000003d08        0x0
                [!provide]                        PROVIDE (__fini_array_start = .)
 *(SORT_BY_INIT_PRIORITY(.fini_array.*) SORT_BY_INIT_PRIORITY(.dtors.*))
 *(.fini_array EXCLUDE_FILE(*crtend?.o *crtend.o *crtbegin?.o *crtbegin.o) .dtors)
                [!provide]                        PROVIDE (__fini_array_end = .)

.ctors
 *crtbegin.o(.ctors)
 *crtbegin?.o(.ctors)
 *(EXCLUDE_FILE(*crtend?.o *crtend.o) .ctors)
 *(SORT_BY_NAME(.ctors.*))
 *(.ctors)

.dtors
 *crtbegin.o(.dtors)
 *crtbegin?.o(.dtors)
 *(EXCLUDE_FILE(*crtend?.o *crtend.o) .dtors)
 *(SORT_BY_NAME(.dtors.*))
 *(.dtors)

.dalign         0x0000000020000000        0x0 load address 0x0000000000003d08
                0x0000000020000000                . = ALIGN (0x4)
                0x0000000020000000                PROVIDE (_data_vma = .)

.dlalign        0x0000000000003d08        0x0
                0x0000000000003d08                . = ALIGN (0x4)
                0x0000000000003d08                PROVIDE (_data_lma = .)

.data           0x0000000020000000      0x120 load address 0x0000000000003d08
                0x0000000020000000                . = ALIGN (0x4)
 *(.gnu.linkonce.r.*)
 *(.data .data.*)
 .data.appChosen
                0x0000000020000000        0x4 ./User/main.o
                0x0000000020000000                appChosen
 .data.background
                0x0000000020000004        0x3 ./User/main.o
                0x0000000020000004                background
 .data.currentPage
                0x0000000020000007        0x1 ./User/main.o
                0x0000000020000007                currentPage
 .data.foreground
                0x0000000020000008        0x3 ./User/main.o
                0x0000000020000008                foreground
 .data.ledDivider
                0x000000002000000b        0x1 ./User/main.o
                0x000000002000000b                ledDivider
 .data.pageground
                0x000000002000000c        0x3 ./User/main.o
                0x000000002000000c                pageground
 .data.pointerLocation
                0x000000002000000f        0x1 ./User/main.o
                0x000000002000000f                pointerLocation
 .data.rvPendownColor
                0x0000000020000010        0x3 ./User/main.o
                0x0000000020000010                rvPendownColor
 *fill*         0x0000000020000013        0x1 
 .data.rvPointerColor
                0x0000000020000014        0x3 ./User/main.o
                0x0000000020000014                rvPointerColor
 *fill*         0x0000000020000017        0x1 
 .data.rv_coding_board
                0x0000000020000018      0x100 ./User/main.o
                0x0000000020000018                rv_coding_board
 .data.timeout_line_code
                0x0000000020000118        0x4 ./User/main.o
                0x0000000020000118                timeout_line_code
 .data.timeout_var_code
                0x000000002000011c        0x4 ./User/main.o
                0x000000002000011c                timeout_var_code
 *(.gnu.linkonce.d.*)
                0x0000000020000120                . = ALIGN (0x8)
                0x0000000020000920                PROVIDE (__global_pointer$ = (. + 0x800))
 *(.sdata .sdata.*)
 *(.sdata2*)
 *(.gnu.linkonce.s.*)
                0x0000000020000120                . = ALIGN (0x8)
 *(.srodata.cst16)
 *(.srodata.cst8)
 *(.srodata.cst4)
 *(.srodata.cst2)
 *(.srodata .srodata.*)
                0x0000000020000120                . = ALIGN (0x4)
                0x0000000020000120                PROVIDE (_edata = .)

.bss            0x0000000020000120      0x3c8 load address 0x0000000000003e28
                0x0000000020000120                . = ALIGN (0x4)
                0x0000000020000120                PROVIDE (_sbss = .)
 *(.sbss*)
 *(.gnu.linkonce.sb.*)
 *(.bss*)
 .bss.canvas    0x0000000020000120      0x200 ./User/main.o
                0x0000000020000120                canvas
 .bss.clearground
                0x0000000020000320        0x3 ./User/main.o
                0x0000000020000320                clearground
 *fill*         0x0000000020000323        0x1 
 .bss.i2c_err_flags
                0x0000000020000324        0x2 ./User/main.o
                0x0000000020000324                i2c_err_flags
 *fill*         0x0000000020000326        0x2 
 .bss.led_array
                0x0000000020000328       0xc0 ./User/main.o
                0x0000000020000328                led_array
 .bss.opCodeStorage
                0x00000000200003e8       0xe0 ./User/main.o
                0x00000000200003e8                opCodeStorage
 .bss.opCodeToStored
                0x00000000200004c8       0x1c ./User/main.o
                0x00000000200004c8                opCodeToStored
 .bss.rvClearColor
                0x00000000200004e4        0x3 ./User/main.o
                0x00000000200004e4                rvClearColor
 *(.gnu.linkonce.b.*)
 *(COMMON*)
                0x00000000200004e8                . = ALIGN (0x4)
 *fill*         0x00000000200004e7        0x1 
                0x00000000200004e8                PROVIDE (_ebss = .)
                [!provide]                        PROVIDE (_end = _ebss)
                [!provide]                        PROVIDE (end = .)

.stack          0x0000000020000700      0x100
                [!provide]                        PROVIDE (_heap_end = .)
                0x0000000020000700                . = ALIGN (0x4)
                [!provide]                        PROVIDE (_susrstack = .)
                0x0000000020000800                . = (. + __stack_size)
 *fill*         0x0000000020000700      0x100 
                0x0000000020000800                PROVIDE (_eusrstack = .)
OUTPUT(InspireRV3.elf elf32-littleriscv)

.debug_info     0x0000000000000000     0x7156
 .debug_info    0x0000000000000000     0x21a7 ./User/ch32v003fun/ch32v003fun.o
 .debug_info    0x00000000000021a7     0x4f8d ./User/main.o
 .debug_info    0x0000000000007134       0x22 ./Startup/startup_ch32v00x.o

.debug_abbrev   0x0000000000000000      0xd51
 .debug_abbrev  0x0000000000000000      0x5ab ./User/ch32v003fun/ch32v003fun.o
 .debug_abbrev  0x00000000000005ab      0x794 ./User/main.o
 .debug_abbrev  0x0000000000000d3f       0x12 ./Startup/startup_ch32v00x.o

.debug_loc      0x0000000000000000     0x4d2c
 .debug_loc     0x0000000000000000     0x1fa2 ./User/ch32v003fun/ch32v003fun.o
 .debug_loc     0x0000000000001fa2     0x2d8a ./User/main.o

.debug_aranges  0x0000000000000000      0x3b8
 .debug_aranges
                0x0000000000000000      0x140 ./User/ch32v003fun/ch32v003fun.o
 .debug_aranges
                0x0000000000000140      0x248 ./User/main.o
 .debug_aranges
                0x0000000000000388       0x30 ./Startup/startup_ch32v00x.o

.debug_ranges   0x0000000000000000      0x9b0
 .debug_ranges  0x0000000000000000      0x268 ./User/ch32v003fun/ch32v003fun.o
 .debug_ranges  0x0000000000000268      0x720 ./User/main.o
 .debug_ranges  0x0000000000000988       0x28 ./Startup/startup_ch32v00x.o

.debug_line     0x0000000000000000     0x7d26
 .debug_line    0x0000000000000000     0x2265 ./User/ch32v003fun/ch32v003fun.o
 .debug_line    0x0000000000002265     0x59af ./User/main.o
 .debug_line    0x0000000000007c14      0x112 ./Startup/startup_ch32v00x.o

.debug_str      0x0000000000000000     0x1744
 .debug_str     0x0000000000000000      0x950 ./User/ch32v003fun/ch32v003fun.o
                                        0xa72 (size before relaxing)
 .debug_str     0x0000000000000950      0xdca ./User/main.o
                                       0x15db (size before relaxing)
 .debug_str     0x000000000000171a       0x2a ./Startup/startup_ch32v00x.o
                                         0x78 (size before relaxing)

.comment        0x0000000000000000       0x33
 .comment       0x0000000000000000       0x33 ./User/ch32v003fun/ch32v003fun.o
                                         0x34 (size before relaxing)
 .comment       0x0000000000000033       0x34 ./User/main.o

.debug_frame    0x0000000000000000      0xc50
 .debug_frame   0x0000000000000000      0x37c ./User/ch32v003fun/ch32v003fun.o
 .debug_frame   0x000000000000037c      0x8d4 ./User/main.o
